target datalayout = "e-m:e-p270:32:32-p271:32:32-p272:64:64-i64:64-i128:128-f80:128-n8:16:32:64-S128"
target triple = "x86_64-pc-linux-gnu"

%"struct.Luau::CodeGen::X64::RegisterX64" = type { i8 }
%"struct.Luau::CodeGen::X64::IrRegAllocX64" = type { ptr, ptr, ptr, i32, %"struct.std::array", %"struct.std::array.0", %"struct.std::array", %"struct.std::array.0", i8, %"class.std::bitset", i32, i32, %"class.std::vector" }
%"struct.std::array" = type { [16 x i8] }
%"struct.std::array.0" = type { [16 x i32] }
%"class.std::bitset" = type { %"struct.std::_Base_bitset" }
%"struct.std::_Base_bitset" = type { [4 x i64] }
%"class.std::vector" = type { %"struct.std::_Vector_base" }
%"struct.std::_Vector_base" = type { %"struct.std::_Vector_base<Luau::CodeGen::X64::IrSpillX64, std::allocator<Luau::CodeGen::X64::IrSpillX64>>::_Vector_impl" }
%"struct.std::_Vector_base<Luau::CodeGen::X64::IrSpillX64, std::allocator<Luau::CodeGen::X64::IrSpillX64>>::_Vector_impl" = type { %"struct.std::_Vector_base<Luau::CodeGen::X64::IrSpillX64, std::allocator<Luau::CodeGen::X64::IrSpillX64>>::_Vector_impl_data" }
%"struct.std::_Vector_base<Luau::CodeGen::X64::IrSpillX64, std::allocator<Luau::CodeGen::X64::IrSpillX64>>::_Vector_impl_data" = type { ptr, ptr, ptr }
%"class.std::vector.1" = type { %"struct.std::_Vector_base.2" }
%"struct.std::_Vector_base.2" = type { %"struct.std::_Vector_base<unsigned char, std::allocator<unsigned char>>::_Vector_impl" }
%"struct.std::_Vector_base<unsigned char, std::allocator<unsigned char>>::_Vector_impl" = type { %"struct.std::_Vector_base<unsigned char, std::allocator<unsigned char>>::_Vector_impl_data" }
%"struct.std::_Vector_base<unsigned char, std::allocator<unsigned char>>::_Vector_impl_data" = type { ptr, ptr, ptr }
%"class.std::vector.14" = type { %"struct.std::_Vector_base.15" }
%"struct.std::_Vector_base.15" = type { %"struct.std::_Vector_base<unsigned int, std::allocator<unsigned int>>::_Vector_impl" }
%"struct.std::_Vector_base<unsigned int, std::allocator<unsigned int>>::_Vector_impl" = type { %"struct.std::_Vector_base<unsigned int, std::allocator<unsigned int>>::_Vector_impl_data" }
%"struct.std::_Vector_base<unsigned int, std::allocator<unsigned int>>::_Vector_impl_data" = type { ptr, ptr, ptr }
%"struct.Luau::CodeGen::IrFunction" = type { %"class.std::vector.26", %"class.std::vector.31", %"class.std::vector.36", %"class.std::vector.41", %"class.std::vector.46", %"class.std::vector.51", i32, i32, %"class.std::vector.56", %"class.std::vector.14", %"struct.Luau::CodeGen::BytecodeTypeInfo", ptr, i8, %"struct.Luau::CodeGen::CfgInfo" }
%"class.std::vector.26" = type { %"struct.std::_Vector_base.27" }
%"struct.std::_Vector_base.27" = type { %"struct.std::_Vector_base<Luau::CodeGen::IrBlock, std::allocator<Luau::CodeGen::IrBlock>>::_Vector_impl" }
%"struct.std::_Vector_base<Luau::CodeGen::IrBlock, std::allocator<Luau::CodeGen::IrBlock>>::_Vector_impl" = type { %"struct.std::_Vector_base<Luau::CodeGen::IrBlock, std::allocator<Luau::CodeGen::IrBlock>>::_Vector_impl_data" }
%"struct.std::_Vector_base<Luau::CodeGen::IrBlock, std::allocator<Luau::CodeGen::IrBlock>>::_Vector_impl_data" = type { ptr, ptr, ptr }
%"class.std::vector.31" = type { %"struct.std::_Vector_base.32" }
%"struct.std::_Vector_base.32" = type { %"struct.std::_Vector_base<Luau::CodeGen::IrInst, std::allocator<Luau::CodeGen::IrInst>>::_Vector_impl" }
%"struct.std::_Vector_base<Luau::CodeGen::IrInst, std::allocator<Luau::CodeGen::IrInst>>::_Vector_impl" = type { %"struct.std::_Vector_base<Luau::CodeGen::IrInst, std::allocator<Luau::CodeGen::IrInst>>::_Vector_impl_data" }
%"struct.std::_Vector_base<Luau::CodeGen::IrInst, std::allocator<Luau::CodeGen::IrInst>>::_Vector_impl_data" = type { ptr, ptr, ptr }
%"class.std::vector.36" = type { %"struct.std::_Vector_base.37" }
%"struct.std::_Vector_base.37" = type { %"struct.std::_Vector_base<Luau::CodeGen::IrConst, std::allocator<Luau::CodeGen::IrConst>>::_Vector_impl" }
%"struct.std::_Vector_base<Luau::CodeGen::IrConst, std::allocator<Luau::CodeGen::IrConst>>::_Vector_impl" = type { %"struct.std::_Vector_base<Luau::CodeGen::IrConst, std::allocator<Luau::CodeGen::IrConst>>::_Vector_impl_data" }
%"struct.std::_Vector_base<Luau::CodeGen::IrConst, std::allocator<Luau::CodeGen::IrConst>>::_Vector_impl_data" = type { ptr, ptr, ptr }
%"class.std::vector.41" = type { %"struct.std::_Vector_base.42" }
%"struct.std::_Vector_base.42" = type { %"struct.std::_Vector_base<Luau::CodeGen::BytecodeBlock, std::allocator<Luau::CodeGen::BytecodeBlock>>::_Vector_impl" }
%"struct.std::_Vector_base<Luau::CodeGen::BytecodeBlock, std::allocator<Luau::CodeGen::BytecodeBlock>>::_Vector_impl" = type { %"struct.std::_Vector_base<Luau::CodeGen::BytecodeBlock, std::allocator<Luau::CodeGen::BytecodeBlock>>::_Vector_impl_data" }
%"struct.std::_Vector_base<Luau::CodeGen::BytecodeBlock, std::allocator<Luau::CodeGen::BytecodeBlock>>::_Vector_impl_data" = type { ptr, ptr, ptr }
%"class.std::vector.46" = type { %"struct.std::_Vector_base.47" }
%"struct.std::_Vector_base.47" = type { %"struct.std::_Vector_base<Luau::CodeGen::BytecodeTypes, std::allocator<Luau::CodeGen::BytecodeTypes>>::_Vector_impl" }
%"struct.std::_Vector_base<Luau::CodeGen::BytecodeTypes, std::allocator<Luau::CodeGen::BytecodeTypes>>::_Vector_impl" = type { %"struct.std::_Vector_base<Luau::CodeGen::BytecodeTypes, std::allocator<Luau::CodeGen::BytecodeTypes>>::_Vector_impl_data" }
%"struct.std::_Vector_base<Luau::CodeGen::BytecodeTypes, std::allocator<Luau::CodeGen::BytecodeTypes>>::_Vector_impl_data" = type { ptr, ptr, ptr }
%"class.std::vector.51" = type { %"struct.std::_Vector_base.52" }
%"struct.std::_Vector_base.52" = type { %"struct.std::_Vector_base<Luau::CodeGen::BytecodeMapping, std::allocator<Luau::CodeGen::BytecodeMapping>>::_Vector_impl" }
%"struct.std::_Vector_base<Luau::CodeGen::BytecodeMapping, std::allocator<Luau::CodeGen::BytecodeMapping>>::_Vector_impl" = type { %"struct.std::_Vector_base<Luau::CodeGen::BytecodeMapping, std::allocator<Luau::CodeGen::BytecodeMapping>>::_Vector_impl_data" }
%"struct.std::_Vector_base<Luau::CodeGen::BytecodeMapping, std::allocator<Luau::CodeGen::BytecodeMapping>>::_Vector_impl_data" = type { ptr, ptr, ptr }
%"class.std::vector.56" = type { %"struct.std::_Vector_base.57" }
%"struct.std::_Vector_base.57" = type { %"struct.std::_Vector_base<Luau::CodeGen::IrOp, std::allocator<Luau::CodeGen::IrOp>>::_Vector_impl" }
%"struct.std::_Vector_base<Luau::CodeGen::IrOp, std::allocator<Luau::CodeGen::IrOp>>::_Vector_impl" = type { %"struct.std::_Vector_base<Luau::CodeGen::IrOp, std::allocator<Luau::CodeGen::IrOp>>::_Vector_impl_data" }
%"struct.std::_Vector_base<Luau::CodeGen::IrOp, std::allocator<Luau::CodeGen::IrOp>>::_Vector_impl_data" = type { ptr, ptr, ptr }
%"struct.Luau::CodeGen::BytecodeTypeInfo" = type { %"class.std::vector.1", %"class.std::vector.61", %"class.std::vector.1", %"class.std::vector.14" }
%"class.std::vector.61" = type { %"struct.std::_Vector_base.62" }
%"struct.std::_Vector_base.62" = type { %"struct.std::_Vector_base<Luau::CodeGen::BytecodeRegTypeInfo, std::allocator<Luau::CodeGen::BytecodeRegTypeInfo>>::_Vector_impl" }
%"struct.std::_Vector_base<Luau::CodeGen::BytecodeRegTypeInfo, std::allocator<Luau::CodeGen::BytecodeRegTypeInfo>>::_Vector_impl" = type { %"struct.std::_Vector_base<Luau::CodeGen::BytecodeRegTypeInfo, std::allocator<Luau::CodeGen::BytecodeRegTypeInfo>>::_Vector_impl_data" }
%"struct.std::_Vector_base<Luau::CodeGen::BytecodeRegTypeInfo, std::allocator<Luau::CodeGen::BytecodeRegTypeInfo>>::_Vector_impl_data" = type { ptr, ptr, ptr }
%"struct.Luau::CodeGen::CfgInfo" = type { %"class.std::vector.14", %"class.std::vector.14", %"class.std::vector.14", %"class.std::vector.14", %"class.std::vector.14", %"class.std::vector.14", %"class.std::vector.14", %"class.std::vector.66", %"class.std::vector.71", %"class.std::vector.71", %"class.std::vector.71", %"struct.Luau::CodeGen::RegisterSet" }
%"class.std::vector.66" = type { %"struct.std::_Vector_base.67" }
%"struct.std::_Vector_base.67" = type { %"struct.std::_Vector_base<Luau::CodeGen::BlockOrdering, std::allocator<Luau::CodeGen::BlockOrdering>>::_Vector_impl" }
%"struct.std::_Vector_base<Luau::CodeGen::BlockOrdering, std::allocator<Luau::CodeGen::BlockOrdering>>::_Vector_impl" = type { %"struct.std::_Vector_base<Luau::CodeGen::BlockOrdering, std::allocator<Luau::CodeGen::BlockOrdering>>::_Vector_impl_data" }
%"struct.std::_Vector_base<Luau::CodeGen::BlockOrdering, std::allocator<Luau::CodeGen::BlockOrdering>>::_Vector_impl_data" = type { ptr, ptr, ptr }
%"class.std::vector.71" = type { %"struct.std::_Vector_base.72" }
%"struct.std::_Vector_base.72" = type { %"struct.std::_Vector_base<Luau::CodeGen::RegisterSet, std::allocator<Luau::CodeGen::RegisterSet>>::_Vector_impl" }
%"struct.std::_Vector_base<Luau::CodeGen::RegisterSet, std::allocator<Luau::CodeGen::RegisterSet>>::_Vector_impl" = type { %"struct.std::_Vector_base<Luau::CodeGen::RegisterSet, std::allocator<Luau::CodeGen::RegisterSet>>::_Vector_impl_data" }
%"struct.std::_Vector_base<Luau::CodeGen::RegisterSet, std::allocator<Luau::CodeGen::RegisterSet>>::_Vector_impl_data" = type { ptr, ptr, ptr }
%"struct.Luau::CodeGen::RegisterSet" = type <{ %"class.std::bitset", i8, i8, [6 x i8] }>
%"struct.Luau::CodeGen::IrInst" = type <{ i8, [3 x i8], %"struct.Luau::CodeGen::IrOp", %"struct.Luau::CodeGen::IrOp", %"struct.Luau::CodeGen::IrOp", %"struct.Luau::CodeGen::IrOp", %"struct.Luau::CodeGen::IrOp", %"struct.Luau::CodeGen::IrOp", %"struct.Luau::CodeGen::IrOp", i32, i16, %"struct.Luau::CodeGen::X64::RegisterX64", %"struct.Luau::CodeGen::A64::RegisterA64", i8, i8, i8, i8 }>
%"struct.Luau::CodeGen::IrOp" = type { i32 }
%"struct.Luau::CodeGen::A64::RegisterA64" = type { i8 }

; Function Attrs: mustprogress nounwind uwtable
define linkonce_odr dso_local noundef ptr @_ZNSt14__array_traitsIjLm16EE6_S_ptrERA16_Kj(ptr noundef nonnull align 4 dereferenceable(64) %0) #1 comdat align 2 {
  %2 = alloca ptr, align 8
  store ptr %0, ptr %2, align 8
  %3 = load ptr, ptr %2, align 8
  %4 = getelementptr inbounds [16 x i32], ptr %3, i64 0, i64 0
  ret ptr %4
}

; Function Attrs: mustprogress nounwind willreturn memory(none) uwtable
define linkonce_odr dso_local noundef ptr @_ZNSt5arrayIjLm16EE4dataEv(ptr noundef nonnull align 4 dereferenceable(64) %0) #4 comdat align 2 {
  %2 = alloca ptr, align 8
  store ptr %0, ptr %2, align 8
  %3 = load ptr, ptr %2, align 8
  %4 = getelementptr inbounds %"struct.std::array.0", ptr %3, i32 0, i32 0
  %5 = call noundef ptr @_ZNSt14__array_traitsIjLm16EE6_S_ptrERA16_Kj(ptr noundef nonnull align 4 dereferenceable(64) %4) #10
  ret ptr %5
}

; Function Attrs: mustprogress nounwind uwtable
define linkonce_odr dso_local noundef nonnull align 4 dereferenceable(43) ptr @_ZNSt6vectorIN4Luau7CodeGen6IrInstESaIS2_EEixEm(ptr noundef nonnull align 8 dereferenceable(24) %0, i64 noundef %1) #1 comdat align 2 {
  %3 = alloca ptr, align 8
  %4 = alloca i64, align 8
  store ptr %0, ptr %3, align 8
  store i64 %1, ptr %4, align 8
  %5 = load ptr, ptr %3, align 8
  %6 = getelementptr inbounds %"struct.std::_Vector_base.32", ptr %5, i32 0, i32 0
  %7 = getelementptr inbounds %"struct.std::_Vector_base<Luau::CodeGen::IrInst, std::allocator<Luau::CodeGen::IrInst>>::_Vector_impl_data", ptr %6, i32 0, i32 0
  %8 = load ptr, ptr %7, align 8
  %9 = load i64, ptr %4, align 8
  %10 = getelementptr inbounds %"struct.Luau::CodeGen::IrInst", ptr %8, i64 %9
  ret ptr %10
}

; Function Attrs: mustprogress nounwind willreturn memory(none) uwtable
define linkonce_odr dso_local noundef ptr @_ZNSt5arrayIjLm16EE3endEv(ptr noundef nonnull align 4 dereferenceable(64) %0) #4 comdat align 2 {
  %2 = alloca ptr, align 8
  store ptr %0, ptr %2, align 8
  %3 = load ptr, ptr %2, align 8
  %4 = call noundef ptr @_ZNSt5arrayIjLm16EE4dataEv(ptr noundef nonnull align 4 dereferenceable(64) %3) #11
  %5 = getelementptr inbounds i32, ptr %4, i64 16
  ret ptr %5
}

; Function Attrs: mustprogress nounwind willreturn memory(none) uwtable
define linkonce_odr dso_local noundef ptr @_ZNSt5arrayIjLm16EE5beginEv(ptr noundef nonnull align 4 dereferenceable(64) %0) #4 comdat align 2 {
  %2 = alloca ptr, align 8
  store ptr %0, ptr %2, align 8
  %3 = load ptr, ptr %2, align 8
  %4 = call noundef ptr @_ZNSt5arrayIjLm16EE4dataEv(ptr noundef nonnull align 4 dereferenceable(64) %3) #11
  ret ptr %4
}

; Function Attrs: mustprogress uwtable
define dso_local void @_ZN4Luau7CodeGen3X6413IrRegAllocX6425preserveAndFreeInstValuesEv(ptr noundef nonnull align 8 dereferenceable(256) %0) #0 align 2 {
  %2 = alloca ptr, align 8
  %3 = alloca ptr, align 8
  %4 = alloca ptr, align 8
  %5 = alloca ptr, align 8
  %6 = alloca i32, align 4
  %7 = alloca ptr, align 8
  %8 = alloca ptr, align 8
  %9 = alloca ptr, align 8
  %10 = alloca i32, align 4
  store ptr %0, ptr %2, align 8
  %11 = load ptr, ptr %2, align 8
  %12 = getelementptr inbounds %"struct.Luau::CodeGen::X64::IrRegAllocX64", ptr %11, i32 0, i32 5
  store ptr %12, ptr %3, align 8
  %13 = load ptr, ptr %3, align 8
  %14 = call noundef ptr @_ZNSt5arrayIjLm16EE5beginEv(ptr noundef nonnull align 4 dereferenceable(64) %13) #11
  store ptr %14, ptr %4, align 8
  %15 = load ptr, ptr %3, align 8
  %16 = call noundef ptr @_ZNSt5arrayIjLm16EE3endEv(ptr noundef nonnull align 4 dereferenceable(64) %15) #11
  store ptr %16, ptr %5, align 8
  br label %17

17:                                               ; preds = %34, %1
  %18 = load ptr, ptr %4, align 8
  %19 = load ptr, ptr %5, align 8
  %20 = icmp ne ptr %18, %19
  br i1 %20, label %21, label %37

21:                                               ; preds = %17
  %22 = load ptr, ptr %4, align 8
  %23 = load i32, ptr %22, align 4
  store i32 %23, ptr %6, align 4
  %24 = load i32, ptr %6, align 4
  %25 = icmp ne i32 %24, -1
  br i1 %25, label %26, label %33

26:                                               ; preds = %21
  %27 = getelementptr inbounds %"struct.Luau::CodeGen::X64::IrRegAllocX64", ptr %11, i32 0, i32 1
  %28 = load ptr, ptr %27, align 8
  %29 = getelementptr inbounds %"struct.Luau::CodeGen::IrFunction", ptr %28, i32 0, i32 1
  %30 = load i32, ptr %6, align 4
  %31 = zext i32 %30 to i64
  %32 = call noundef nonnull align 4 dereferenceable(43) ptr @_ZNSt6vectorIN4Luau7CodeGen6IrInstESaIS2_EEixEm(ptr noundef nonnull align 8 dereferenceable(24) %29, i64 noundef %31) #10
  call void @_ZN4Luau7CodeGen3X6413IrRegAllocX648preserveERNS0_6IrInstE(ptr noundef nonnull align 8 dereferenceable(256) %11, ptr noundef nonnull align 4 dereferenceable(43) %32)
  br label %33

33:                                               ; preds = %26, %21
  br label %34

34:                                               ; preds = %33
  %35 = load ptr, ptr %4, align 8
  %36 = getelementptr inbounds i32, ptr %35, i32 1
  store ptr %36, ptr %4, align 8
  br label %17

37:                                               ; preds = %17
  %38 = getelementptr inbounds %"struct.Luau::CodeGen::X64::IrRegAllocX64", ptr %11, i32 0, i32 7
  store ptr %38, ptr %7, align 8
  %39 = load ptr, ptr %7, align 8
  %40 = call noundef ptr @_ZNSt5arrayIjLm16EE5beginEv(ptr noundef nonnull align 4 dereferenceable(64) %39) #11
  store ptr %40, ptr %8, align 8
  %41 = load ptr, ptr %7, align 8
  %42 = call noundef ptr @_ZNSt5arrayIjLm16EE3endEv(ptr noundef nonnull align 4 dereferenceable(64) %41) #11
  store ptr %42, ptr %9, align 8
  br label %43

43:                                               ; preds = %60, %37
  %44 = load ptr, ptr %8, align 8
  %45 = load ptr, ptr %9, align 8
  %46 = icmp ne ptr %44, %45
  br i1 %46, label %47, label %63

47:                                               ; preds = %43
  %48 = load ptr, ptr %8, align 8
  %49 = load i32, ptr %48, align 4
  store i32 %49, ptr %10, align 4
  %50 = load i32, ptr %10, align 4
  %51 = icmp ne i32 %50, -1
  br i1 %51, label %52, label %59

52:                                               ; preds = %47
  %53 = getelementptr inbounds %"struct.Luau::CodeGen::X64::IrRegAllocX64", ptr %11, i32 0, i32 1
  %54 = load ptr, ptr %53, align 8
  %55 = getelementptr inbounds %"struct.Luau::CodeGen::IrFunction", ptr %54, i32 0, i32 1
  %56 = load i32, ptr %10, align 4
  %57 = zext i32 %56 to i64
  %58 = call noundef nonnull align 4 dereferenceable(43) ptr @_ZNSt6vectorIN4Luau7CodeGen6IrInstESaIS2_EEixEm(ptr noundef nonnull align 8 dereferenceable(24) %55, i64 noundef %57) #10
  call void @_ZN4Luau7CodeGen3X6413IrRegAllocX648preserveERNS0_6IrInstE(ptr noundef nonnull align 8 dereferenceable(256) %11, ptr noundef nonnull align 4 dereferenceable(43) %58)
  br label %59

59:                                               ; preds = %52, %47
  br label %60

60:                                               ; preds = %59
  %61 = load ptr, ptr %8, align 8
  %62 = getelementptr inbounds i32, ptr %61, i32 1
  store ptr %62, ptr %8, align 8
  br label %43

63:                                               ; preds = %43
  ret void
}