; Function Attrs: mustprogress uwtable
define dso_local void @_ZN4Luau7CodeGen3X6413IrRegAllocX6425preserveAndFreeInstValuesEv(ptr nocapture noundef nonnull align 8 dereferenceable(256) %0) local_unnamed_addr #1 align 2 {
  %2 = getelementptr inbounds i8, ptr %0, i64 8
  br label %3

3:                                                ; preds = %1, %11
  %.0.idx24 = phi i64 [ 44, %1 ], [ %.0.add, %11 ]
  %.0.ptr = getelementptr inbounds i8, ptr %0, i64 %.0.idx24
  %4 = load i32, ptr %.0.ptr, align 4
  %.not21 = icmp eq i32 %4, -1
  br i1 %.not21, label %11, label %5

5:                                                ; preds = %3
  %6 = load ptr, ptr %2, align 8
  %7 = getelementptr inbounds i8, ptr %6, i64 24
  %8 = zext i32 %4 to i64
  %9 = load ptr, ptr %7, align 8
  %10 = getelementptr inbounds %"struct.Luau::CodeGen::IrInst", ptr %9, i64 %8
  tail call void @_ZN4Luau7CodeGen3X6413IrRegAllocX648preserveERNS0_6IrInstE(ptr noundef nonnull align 8 dereferenceable(256) %0, ptr noundef nonnull align 4 dereferenceable(43) %10)
  br label %11

11:                                               ; preds = %3, %5
  %.0.add = add nuw nsw i64 %.0.idx24, 4
  %.not = icmp eq i64 %.0.add, 108
  br i1 %.not, label %.preheader, label %3

.preheader:                                       ; preds = %11, %19
  %.016.idx25 = phi i64 [ %.016.add, %19 ], [ 124, %11 ]
  %.016.ptr = getelementptr inbounds i8, ptr %0, i64 %.016.idx25
  %12 = load i32, ptr %.016.ptr, align 4
  %.not20 = icmp eq i32 %12, -1
  br i1 %.not20, label %19, label %13

13:                                               ; preds = %.preheader
  %14 = load ptr, ptr %2, align 8
  %15 = getelementptr inbounds i8, ptr %14, i64 24
  %16 = zext i32 %12 to i64
  %17 = load ptr, ptr %15, align 8
  %18 = getelementptr inbounds %"struct.Luau::CodeGen::IrInst", ptr %17, i64 %16
  tail call void @_ZN4Luau7CodeGen3X6413IrRegAllocX648preserveERNS0_6IrInstE(ptr noundef nonnull align 8 dereferenceable(256) %0, ptr noundef nonnull align 4 dereferenceable(43) %18)
  br label %19

19:                                               ; preds = %.preheader, %13
  %.016.add = add nuw nsw i64 %.016.idx25, 4
  %.not19 = icmp eq i64 %.016.add, 188
  br i1 %.not19, label %20, label %.preheader

20:                                               ; preds = %19
  ret void
}